target datalayout = "e-m:e-p270:32:32-p271:32:32-p272:64:64-i64:64-i128:128-f80:128-n8:16:32:64-S128"
target triple = "x86_64-pc-linux-gnu"

%class.TestCase = type { %"class.std::__cxx11::basic_string", %"class.std::__cxx11::basic_string", ptr }
%"class.std::__cxx11::basic_string" = type { %"struct.std::__cxx11::basic_string<char>::_Alloc_hider", i64, %union.anon }
%"struct.std::__cxx11::basic_string<char>::_Alloc_hider" = type { ptr }
%union.anon = type { i64, [8 x i8] }
%"struct.TestCase::Test" = type { i32, [3 x float], [3 x float], [3 x float], [3 x float], float, i16, i16, i8, ptr, i32, ptr, i32, i32, i32, i32, ptr }

; Function Attrs: mustprogress nounwind uwtable
define dso_local void @_ZN8TestCase10resetTimesEv(ptr noundef nonnull align 8 dereferenceable(72) %0) #0 align 2 {
  %2 = alloca ptr, align 8
  %3 = alloca ptr, align 8
  store ptr %0, ptr %2, align 8
  %4 = load ptr, ptr %2, align 8
  %5 = getelementptr inbounds %class.TestCase, ptr %4, i32 0, i32 2
  %6 = load ptr, ptr %5, align 8
  store ptr %6, ptr %3, align 8
  br label %7

7:                                                ; preds = %17, %1
  %8 = load ptr, ptr %3, align 8
  %9 = icmp ne ptr %8, null
  br i1 %9, label %10, label %21

10:                                               ; preds = %7
  %11 = load ptr, ptr %3, align 8
  %12 = getelementptr inbounds %"struct.TestCase::Test", ptr %11, i32 0, i32 13
  store i32 0, ptr %12, align 4
  %13 = load ptr, ptr %3, align 8
  %14 = getelementptr inbounds %"struct.TestCase::Test", ptr %13, i32 0, i32 14
  store i32 0, ptr %14, align 8
  %15 = load ptr, ptr %3, align 8
  %16 = getelementptr inbounds %"struct.TestCase::Test", ptr %15, i32 0, i32 15
  store i32 0, ptr %16, align 4
  br label %17

17:                                               ; preds = %10
  %18 = load ptr, ptr %3, align 8
  %19 = getelementptr inbounds %"struct.TestCase::Test", ptr %18, i32 0, i32 16
  %20 = load ptr, ptr %19, align 8
  store ptr %20, ptr %3, align 8
  br label %7, !llvm.loop !10

21:                                               ; preds = %7
  ret void
}