; Function Attrs: mustprogress nofree norecurse nosync nounwind memory(readwrite, inaccessiblemem: none) uwtable
define dso_local void @_ZN8TestCase10resetTimesEv(ptr noundef nonnull readonly align 8 captures(none) dereferenceable(72) %0) local_unnamed_addr #6 align 2 {
  %2 = getelementptr inbounds nuw i8, ptr %0, i64 64
  %.06 = load ptr, ptr %2, align 8
  %.not7 = icmp eq ptr %.06, null
  br i1 %.not7, label %._crit_edge, label %.lr.ph

.lr.ph:                                           ; preds = %1, %.lr.ph
  %.08 = phi ptr [ %.0, %.lr.ph ], [ %.06, %1 ]
  %3 = getelementptr inbounds nuw i8, ptr %.08, i64 92
  store i32 0, ptr %3, align 4
  %4 = getelementptr inbounds nuw i8, ptr %.08, i64 96
  store i32 0, ptr %4, align 8
  %5 = getelementptr inbounds nuw i8, ptr %.08, i64 100
  store i32 0, ptr %5, align 4
  %6 = getelementptr inbounds nuw i8, ptr %.08, i64 104
  %.0 = load ptr, ptr %6, align 8
  %.not = icmp eq ptr %.0, null
  br i1 %.not, label %._crit_edge, label %.lr.ph, !llvm.loop !10

._crit_edge:                                      ; preds = %.lr.ph, %1
  ret void
}